target datalayout = "e-m:e-p270:32:32-p271:32:32-p272:64:64-i64:64-i128:128-f80:128-n8:16:32:64-S128"
target triple = "x86_64-pc-linux-gnu"

%"struct.llvm::DWARFDebugLine::ContentTypeTracker" = type { i8, i8, i8, i8 }

; Function Attrs: mustprogress nounwind uwtable
define dso_local void @_ZN4llvm14DWARFDebugLine18ContentTypeTracker16trackContentTypeENS_5dwarf21LineNumberEntryFormatE(ptr noundef nonnull align 1 dereferenceable(4) %0, i32 noundef %1) #0 align 2 {
  %3 = alloca ptr, align 8
  %4 = alloca i32, align 4
  store ptr %0, ptr %3, align 8
  store i32 %1, ptr %4, align 4
  %5 = load ptr, ptr %3, align 8
  %6 = load i32, ptr %4, align 4
  switch i32 %6, label %15 [
    i32 3, label %7
    i32 4, label %9
    i32 5, label %11
    i32 8193, label %13
  ]

7:                                                ; preds = %2
  %8 = getelementptr inbounds nuw %"struct.llvm::DWARFDebugLine::ContentTypeTracker", ptr %5, i32 0, i32 0
  store i8 1, ptr %8, align 1
  br label %16

9:                                                ; preds = %2
  %10 = getelementptr inbounds nuw %"struct.llvm::DWARFDebugLine::ContentTypeTracker", ptr %5, i32 0, i32 1
  store i8 1, ptr %10, align 1
  br label %16

11:                                               ; preds = %2
  %12 = getelementptr inbounds nuw %"struct.llvm::DWARFDebugLine::ContentTypeTracker", ptr %5, i32 0, i32 2
  store i8 1, ptr %12, align 1
  br label %16

13:                                               ; preds = %2
  %14 = getelementptr inbounds nuw %"struct.llvm::DWARFDebugLine::ContentTypeTracker", ptr %5, i32 0, i32 3
  store i8 1, ptr %14, align 1
  br label %16

15:                                               ; preds = %2
  br label %16

16:                                               ; preds = %15, %13, %11, %9, %7
  ret void
}