; Function Attrs: mustprogress nofree norecurse nosync nounwind willreturn memory(argmem: write) uwtable
define dso_local void @_ZN4llvm14DWARFDebugLine18ContentTypeTracker16trackContentTypeENS_5dwarf21LineNumberEntryFormatE(ptr noundef nonnull writeonly align 1 captures(none) dereferenceable(4) %0, i32 noundef %1) local_unnamed_addr #0 align 2 {
  switch i32 %1, label %10 [
    i32 3, label %3
    i32 4, label %4
    i32 5, label %6
    i32 8193, label %8
  ]

3:                                                ; preds = %2
  store i8 1, ptr %0, align 1
  br label %10

4:                                                ; preds = %2
  %5 = getelementptr inbounds nuw i8, ptr %0, i64 1
  store i8 1, ptr %5, align 1
  br label %10

6:                                                ; preds = %2
  %7 = getelementptr inbounds nuw i8, ptr %0, i64 2
  store i8 1, ptr %7, align 1
  br label %10

8:                                                ; preds = %2
  %9 = getelementptr inbounds nuw i8, ptr %0, i64 3
  store i8 1, ptr %9, align 1
  br label %10

10:                                               ; preds = %2, %8, %6, %4, %3
  ret void
}